; Function Attrs: nounwind uwtable
define range(i64 -1, -9223372036854775808) i64 @H5Fcreate(ptr noundef %0, i32 noundef %1, i64 noundef %2, i64 noundef %3) local_unnamed_addr #0 {
  %5 = alloca %struct.H5CX_node_t, align 8
  call void @llvm.lifetime.start.p0(i64 480, ptr nonnull %5) #6
  call void @llvm.memset.p0.i64(ptr noundef nonnull align 8 dereferenceable(480) %5, i8 0, i64 480, i1 false)
  %6 = load i8, ptr @H5_libinit_g, align 1, !tbaa !3, !range !7, !noundef !8
  %7 = trunc nuw i8 %6 to i1
  %8 = load i8, ptr @H5_libterm_g, align 1, !range !7
  %9 = trunc nuw i8 %8 to i1
  %10 = select i1 %7, i1 true, i1 %9
  br i1 %10, label %18, label %11, !prof !9

11:                                               ; preds = %4
  %12 = tail call i32 @H5_init_library() #6
  %13 = icmp slt i32 %12, 0
  br i1 %13, label %14, label %._crit_edge, !prof !10

._crit_edge:                                      ; preds = %11
  %.pre = load i8, ptr @H5_libterm_g, align 1, !range !7
  br label %18

14:                                               ; preds = %11
  %15 = load i64, ptr @H5E_FUNC_g, align 8, !tbaa !11
  %16 = load i64, ptr @H5E_CANTINIT_g, align 8, !tbaa !11
  %17 = tail call i32 (ptr, ptr, i32, i64, i64, ptr, ...) @H5E_printf_stack(ptr noundef nonnull @.str, ptr noundef nonnull @__func__.H5Fcreate, i32 noundef 643, i64 noundef %15, i64 noundef %16, ptr noundef nonnull @.str.1) #6
  br label %.thread26

18:                                               ; preds = %._crit_edge, %4
  %19 = phi i8 [ %.pre, %._crit_edge ], [ %8, %4 ]
  %20 = load i8, ptr @H5F_init_g, align 1, !tbaa !3, !range !7, !noundef !8
  %21 = trunc nuw i8 %20 to i1
  %22 = trunc nuw i8 %19 to i1
  %23 = select i1 %21, i1 true, i1 %22
  br i1 %23, label %31, label %24, !prof !9

24:                                               ; preds = %18
  store i8 1, ptr @H5F_init_g, align 1, !tbaa !3
  %25 = tail call i32 @H5F__init_package() #6
  %26 = icmp slt i32 %25, 0
  br i1 %26, label %27, label %31, !prof !13

27:                                               ; preds = %24
  store i8 0, ptr @H5F_init_g, align 1, !tbaa !3
  %28 = load i64, ptr @H5E_FUNC_g, align 8, !tbaa !11
  %29 = load i64, ptr @H5E_CANTINIT_g, align 8, !tbaa !11
  %30 = tail call i32 (ptr, ptr, i32, i64, i64, ptr, ...) @H5E_printf_stack(ptr noundef nonnull @.str, ptr noundef nonnull @__func__.H5Fcreate, i32 noundef 643, i64 noundef %28, i64 noundef %29, ptr noundef nonnull @.str.2) #6
  br label %.thread26

31:                                               ; preds = %18, %24
  %32 = call i32 @H5CX_push(ptr noundef nonnull %5) #6
  %33 = icmp slt i32 %32, 0
  br i1 %33, label %34, label %38, !prof !10

34:                                               ; preds = %31
  %35 = load i64, ptr @H5E_FUNC_g, align 8, !tbaa !11
  %36 = load i64, ptr @H5E_CANTSET_g, align 8, !tbaa !11
  %37 = call i32 (ptr, ptr, i32, i64, i64, ptr, ...) @H5E_printf_stack(ptr noundef nonnull @.str, ptr noundef nonnull @__func__.H5Fcreate, i32 noundef 643, i64 noundef %35, i64 noundef %36, ptr noundef nonnull @.str.3) #6
  br label %.thread26

38:                                               ; preds = %31
  %39 = call i32 @H5E_clear_stack() #6
  %40 = call fastcc i64 @H5F__create_api_common(ptr noundef %0, i32 noundef %1, i64 noundef %2, i64 noundef %3, ptr noundef null)
  %41 = icmp slt i64 %40, 0
  br i1 %41, label %42, label %46, !prof !14

42:                                               ; preds = %38
  %43 = load i64, ptr @H5E_FILE_g, align 8, !tbaa !11
  %44 = load i64, ptr @H5E_CANTCREATE_g, align 8, !tbaa !11
  %45 = call i32 (ptr, ptr, i32, i64, i64, ptr, ...) @H5E_printf_stack(ptr noundef nonnull @.str, ptr noundef nonnull @__func__.H5Fcreate, i32 noundef 647, i64 noundef %43, i64 noundef %44, ptr noundef nonnull @.str.22) #6
  br label %.thread32

46:                                               ; preds = %38
  %47 = call ptr @H5VL_vol_object(i64 noundef %40) #6
  %48 = icmp eq ptr %47, null
  br i1 %48, label %49, label %53, !prof !14

49:                                               ; preds = %46
  %50 = load i64, ptr @H5E_FILE_g, align 8, !tbaa !11
  %51 = load i64, ptr @H5E_BADTYPE_g, align 8, !tbaa !11
  %52 = call i32 (ptr, ptr, i32, i64, i64, ptr, ...) @H5E_printf_stack(ptr noundef nonnull @.str, ptr noundef nonnull @__func__.H5Fcreate, i32 noundef 651, i64 noundef %50, i64 noundef %51, ptr noundef nonnull @.str.23) #6
  br label %.thread32

53:                                               ; preds = %46
  %54 = call fastcc i32 @H5F__post_open_api_common(ptr noundef %47, ptr noundef null)
  %55 = icmp slt i32 %54, 0
  br i1 %55, label %56, label %61, !prof !14

56:                                               ; preds = %53
  %57 = load i64, ptr @H5E_FILE_g, align 8, !tbaa !11
  %58 = load i64, ptr @H5E_CANTINIT_g, align 8, !tbaa !11
  %59 = call i32 (ptr, ptr, i32, i64, i64, ptr, ...) @H5E_printf_stack(ptr noundef nonnull @.str, ptr noundef nonnull @__func__.H5Fcreate, i32 noundef 655, i64 noundef %57, i64 noundef %58, ptr noundef nonnull @.str.24) #6
  br label %.thread32

.thread32:                                        ; preds = %56, %49, %42
  %60 = call i32 @H5CX_pop(i1 noundef zeroext true) #6
  br label %.thread26

61:                                               ; preds = %53
  %62 = call i32 @H5CX_pop(i1 noundef zeroext true) #6
  br label %64

.thread26:                                        ; preds = %34, %27, %14, %.thread32
  %63 = call i32 @H5E_dump_api_stack() #6
  br label %64

64:                                               ; preds = %61, %.thread26
  %.0152129 = phi i64 [ -1, %.thread26 ], [ %40, %61 ]
  call void @llvm.lifetime.end.p0(i64 480, ptr nonnull %5) #6
  ret i64 %.0152129
}